BL51 BANKED LINKER/LOCATER V6.22                                                        05/11/2021  08:03:25  PAGE 1


BL51 BANKED LINKER/LOCATER V6.22, INVOKED BY:
C:\USERS\12291\DESKTOP\新建文件夹\C51\BIN\BL51.EXE test_main.obj, LM4229.obj, interface.obj, interrupt.obj, enemy.obj TO
>>  test RAMSIZE (256)


MEMORY MODEL: SMALL


INPUT MODULES INCLUDED:
  test_main.obj (TEST_MAIN)
  LM4229.obj (LM4229)
  interface.obj (INTERFACE)
  interrupt.obj (INTERRUPT)
  enemy.obj (ENEMY)
  C:\USERS\12291\DESKTOP\新建文件夹\C51\LIB\C51S.LIB (?C_STARTUP)
  C:\USERS\12291\DESKTOP\新建文件夹\C51\LIB\C51S.LIB (?C?CLDOPTR)
  C:\USERS\12291\DESKTOP\新建文件夹\C51\LIB\C51S.LIB (?C?IMUL)
  C:\USERS\12291\DESKTOP\新建文件夹\C51\LIB\C51S.LIB (?C?UIDIV)
  C:\USERS\12291\DESKTOP\新建文件夹\C51\LIB\C51S.LIB (?C?SIDIV)
  C:\USERS\12291\DESKTOP\新建文件夹\C51\LIB\C51S.LIB (?C?OFFX256)


LINK MAP OF MODULE:  test (TEST_MAIN)


            TYPE    BASE      LENGTH    RELOCATION   SEGMENT NAME
            -----------------------------------------------------

            * * * * * * *   D A T A   M E M O R Y   * * * * * * *
            REG     0000H     0008H     ABSOLUTE     "REG BANK 0"
            DATA    0008H     0027H     UNIT         _DATA_GROUP_
            DATA    002FH     000FH     UNIT         ?DT?_WRITE_LCD24_24?LM4229
            DATA    003EH     0009H     UNIT         ?DT?_DISPLAY?LM4229
            DATA    0047H     0008H     UNIT         ?DT?TEST_MAIN
            DATA    004FH     0007H     UNIT         ?DT?_PRINT_STRING?LM4229
            DATA    0056H     0006H     UNIT         ?DT?_CLR_LCD?LM4229
            DATA    005CH     0003H     UNIT         ?DT?_PRINT_TEXT?LM4229
            DATA    005FH     0002H     UNIT         ?DT?_TEXT_LOCATION?LM4229
            DATA    0061H     0001H     UNIT         ?DT?_TEXT_OUT?LM4229
            IDATA   0062H     0001H     UNIT         ?STACK

            * * * * * * *   C O D E   M E M O R Y   * * * * * * *
            CODE    0000H     0003H     ABSOLUTE     
            CODE    0003H     0008H     UNIT         ?PR?_WRITE_TEXT?LM4229
            CODE    000BH     0003H     ABSOLUTE     
            CODE    000EH     0015H     UNIT         ?PR?INIT?INTERRUPT
            CODE    0023H     0003H     ABSOLUTE     
            CODE    0026H     040DH     UNIT         ?PR?START_INTERFACE?INTERFACE
            CODE    0433H     0284H     UNIT         ?CO?INTERFACE
            CODE    06B7H     01D2H     UNIT         ?PR?C_PASS_CHOICE?INTERFACE
            CODE    0889H     0158H     UNIT         ?PR?_CURSOR_FLASH?INTERFACE
            CODE    09E1H     00DBH     UNIT         ?C?LIB_CODE
            CODE    0ABCH     00C3H     UNIT         ?PR?_CURSOR_MOVE?INTERFACE
            CODE    0B7FH     00BFH     UNIT         ?PR?_WRITE_LCD24?LM4229
            CODE    0C3EH     00BFH     UNIT         ?PR?_WRITE_LCD24_24?LM4229
            CODE    0CFDH     00BCH     UNIT         ?PR?_WRITE_LCD16?LM4229
            CODE    0DB9H     00B2H     UNIT         ?PR?_WRITE_LCD8?LM4229
            CODE    0E6BH     00A5H     UNIT         ?PR?C_PASS2?INTERFACE
BL51 BANKED LINKER/LOCATER V6.22                                                      05/11/2021  08:03:25  PAGE 2


            CODE    0F10H     00A5H     UNIT         ?PR?C_PASS3?INTERFACE
            CODE    0FB5H     0092H     UNIT         ?PR?_CLEAR_PART?LM4229
            CODE    1047H     0083H     UNIT         ?PR?_DISPLAY?LM4229
            CODE    10CAH     007EH     UNIT         ?PR?CLEAR_ALL?LM4229
            CODE    1148H     007DH     UNIT         ?PR?C_PASS1?INTERFACE
            CODE    11C5H     005CH     UNIT         ?PR?_CLR_LCD?LM4229
            CODE    1221H     005BH     UNIT         ?PR?MAIN?TEST_MAIN
            CODE    127CH     004EH     UNIT         ?PR?INIT_ENEMY?INTERFACE
            CODE    12CAH     0048H     UNIT         ?CO?TEST_MAIN
            CODE    1312H     003FH     UNIT         ?PR?_PRINT_TEXT?LM4229
            CODE    1351H     0036H     UNIT         ?PR?_PRINT_STRING?LM4229
            CODE    1387H     002CH     UNIT         ?PR?LCD_INIT_GRAPH?LM4229
            CODE    13B3H     0028H     UNIT         ?PR?LCD_INIT_TEXT?LM4229
            CODE    13DBH     001DH     UNIT         ?PR?TIMER0?INTERRUPT
            CODE    13F8H     0018H     UNIT         ?PR?CURSOR_POSITION?LM4229
            CODE    1410H     0018H     UNIT         ?PR?SCON?INTERRUPT
            CODE    1428H     0013H     UNIT         ?PR?_TEXT_LOCATION?LM4229
            CODE    143BH     0011H     UNIT         ?PR?_TEXT_OUT?LM4229
            CODE    144CH     0011H     UNIT         ?PR?_DELAY_LCD?LM4229
            CODE    145DH     0010H     UNIT         ?PR?TIMER0_INIT?INTERRUPT
            CODE    146DH     000FH     UNIT         ?PR?STATUS_CHECK?LM4229
            CODE    147CH     000FH     UNIT         ?PR?_WRITE_DATA?LM4229
            CODE    148BH     000FH     UNIT         ?PR?CURSOR_ON?LM4229
            CODE    149AH     000CH     UNIT         ?C_C51STARTUP
            CODE    14A6H     000AH     UNIT         ?PR?_WRITE_COM?LM4229
            CODE    14B0H     0009H     UNIT         ?PR?_ASC2LCD?LM4229
            CODE    14B9H     0009H     UNIT         ?PR?_PRINT_ENEMY1?INTERFACE
            CODE    14C2H     0001H     UNIT         ?PR?ENEMY_MOVE?INTERFACE



OVERLAY MAP OF MODULE:   test (TEST_MAIN)


SEGMENT                                 DATA_GROUP 
  +--> CALLED SEGMENT                 START    LENGTH
-----------------------------------------------------
?C_C51STARTUP                         -----    -----
  +--> ?PR?MAIN?TEST_MAIN

?PR?MAIN?TEST_MAIN                    -----    -----
  +--> ?PR?INIT?INTERRUPT
  +--> ?PR?START_INTERFACE?INTERFACE
  +--> ?PR?CLEAR_ALL?LM4229
  +--> ?PR?C_PASS_CHOICE?INTERFACE
  +--> ?PR?C_PASS1?INTERFACE
  +--> ?PR?_CURSOR_MOVE?INTERFACE
  +--> ?PR?C_PASS2?INTERFACE
  +--> ?PR?C_PASS3?INTERFACE

?PR?START_INTERFACE?INTERFACE         0008H    0003H
  +--> ?PR?LCD_INIT_GRAPH?LM4229
  +--> ?CO?INTERFACE
  +--> ?PR?_WRITE_LCD24?LM4229
  +--> ?PR?_WRITE_LCD8?LM4229

?PR?LCD_INIT_GRAPH?LM4229             -----    -----
BL51 BANKED LINKER/LOCATER V6.22                                                      05/11/2021  08:03:25  PAGE 3


  +--> ?PR?_WRITE_DATA?LM4229
  +--> ?PR?_WRITE_COM?LM4229

?PR?_WRITE_DATA?LM4229                -----    -----
  +--> ?PR?_DELAY_LCD?LM4229

?PR?_WRITE_COM?LM4229                 -----    -----
  +--> ?PR?_DELAY_LCD?LM4229

?PR?_WRITE_LCD24?LM4229               000BH    000FH
  +--> ?PR?_WRITE_DATA?LM4229
  +--> ?PR?_WRITE_COM?LM4229

?PR?_WRITE_LCD8?LM4229                000BH    000FH
  +--> ?PR?_WRITE_DATA?LM4229
  +--> ?PR?_WRITE_COM?LM4229

?PR?CLEAR_ALL?LM4229                  0008H    0006H
  +--> ?PR?_WRITE_DATA?LM4229
  +--> ?PR?_WRITE_COM?LM4229

?PR?C_PASS_CHOICE?INTERFACE           -----    -----
  +--> ?CO?INTERFACE
  +--> ?PR?_WRITE_LCD8?LM4229

?PR?C_PASS1?INTERFACE                 0008H    0008H
  +--> ?CO?INTERFACE
  +--> ?PR?_WRITE_LCD16?LM4229
  +--> ?PR?INIT_ENEMY?INTERFACE
  +--> ?PR?_CURSOR_FLASH?INTERFACE

?PR?_WRITE_LCD16?LM4229               0020H    000FH
  +--> ?PR?_WRITE_DATA?LM4229
  +--> ?PR?_WRITE_COM?LM4229

?PR?INIT_ENEMY?INTERFACE              -----    -----
  +--> ?PR?_PRINT_ENEMY1?INTERFACE

?PR?_PRINT_ENEMY1?INTERFACE           -----    -----
  +--> ?CO?INTERFACE
  +--> ?PR?_WRITE_LCD16?LM4229

?PR?_CURSOR_FLASH?INTERFACE           0010H    000CH
  +--> ?PR?_WRITE_DATA?LM4229
  +--> ?PR?_WRITE_COM?LM4229
  +--> ?CO?INTERFACE
  +--> ?PR?_CURSOR_MOVE?INTERFACE

?PR?_CURSOR_MOVE?INTERFACE            001CH    0004H
  +--> ?PR?_CLEAR_PART?LM4229
  +--> ?CO?INTERFACE
  +--> ?PR?_WRITE_LCD16?LM4229

?PR?_CLEAR_PART?LM4229                0020H    0009H
  +--> ?PR?_WRITE_DATA?LM4229
  +--> ?PR?_WRITE_COM?LM4229

BL51 BANKED LINKER/LOCATER V6.22                                                      05/11/2021  08:03:25  PAGE 4


?PR?C_PASS2?INTERFACE                 0008H    0008H
  +--> ?CO?INTERFACE
  +--> ?PR?_WRITE_LCD16?LM4229

?PR?C_PASS3?INTERFACE                 0008H    0008H
  +--> ?CO?INTERFACE
  +--> ?PR?_WRITE_LCD16?LM4229



UNRESOLVED EXTERNAL SYMBOLS:
   DI
   DI_QUANTITY
   ENEMY
   NUM



SYMBOL TABLE OF MODULE:  test (TEST_MAIN)

  VALUE           TYPE          NAME
  ----------------------------------

  -------         MODULE        TEST_MAIN
  C:0000H         SYMBOL        _ICE_DUMMY_
  D:00A0H         PUBLIC        P2
  D:0047H         PUBLIC        read
  C:1221H         PUBLIC        main
  C:12CAH         PUBLIC        private1
  D:0049H         PUBLIC        com
  D:004BH         PUBLIC        cursor_m
  -------         PROC          MAIN
  C:1221H         LINE#         17
  C:1221H         LINE#         18
  C:1221H         LINE#         19
  C:1224H         LINE#         20
  C:1229H         LINE#         22
  C:122CH         LINE#         23
  C:122FH         LINE#         25
  C:1232H         LINE#         26
  C:1232H         LINE#         28
  C:123AH         LINE#         29
  C:123AH         LINE#         30
  C:123EH         LINE#         31
  C:1242H         LINE#         32
  C:1245H         LINE#         33
  C:124AH         LINE#         34
  C:124DH         LINE#         36
  C:1250H         LINE#         39
  C:1252H         LINE#         40
  C:125AH         LINE#         41
  C:125AH         LINE#         42
  C:125DH         LINE#         43
  C:1262H         LINE#         44
  C:1265H         LINE#         46
  C:1267H         LINE#         47
  C:126FH         LINE#         48
BL51 BANKED LINKER/LOCATER V6.22                                                      05/11/2021  08:03:25  PAGE 5


  C:126FH         LINE#         50
  C:1272H         LINE#         51
  C:1277H         LINE#         52
  C:127AH         LINE#         54
  C:127AH         LINE#         56
  -------         ENDPROC       MAIN
  -------         ENDMOD        TEST_MAIN

  -------         MODULE        LM4229
  C:0000H         SYMBOL        _ICE_DUMMY_
  D:0080H         PUBLIC        P0
  C:143BH         PUBLIC        _text_out
  D:00A0H         PUBLIC        P2
  C:1428H         PUBLIC        _text_location
  B:00A0H.0       PUBLIC        CD
  B:00A0H.2       PUBLIC        CE
  C:146DH         PUBLIC        status_check
  B:00B0H.7       PUBLIC        RD
  C:14B0H         PUBLIC        _asc2lcd
  C:0FB5H         PUBLIC        _clear_part
  C:10CAH         PUBLIC        clear_all
  C:1456H         PUBLIC        _delay_lcd
  B:00B0H.6       PUBLIC        WR
  C:0B7FH         PUBLIC        _write_lcd24
  C:0CFDH         PUBLIC        _write_lcd16
  C:1483H         PUBLIC        _write_data
  C:1351H         PUBLIC        _print_string
  C:1387H         PUBLIC        lcd_init_graph
  B:00A0H.4       PUBLIC        MD2
  B:00A0H.1       PUBLIC        WRIT
  B:00A0H.3       PUBLIC        FS1
  C:14A6H         PUBLIC        _write_com
  C:0003H         PUBLIC        _write_text
  C:11C5H         PUBLIC        _clr_lcd
  C:1312H         PUBLIC        _print_text
  C:148BH         PUBLIC        cursor_on
  C:0C3EH         PUBLIC        _write_lcd24_24
  C:13B3H         PUBLIC        lcd_init_text
  C:1047H         PUBLIC        _display
  C:0DB9H         PUBLIC        _write_lcd8
  C:13F8H         PUBLIC        cursor_position
  -------         PROC          STATUS_CHECK
  C:146DH         LINE#         11
  C:146DH         LINE#         13
  C:146DH         LINE#         14
  C:146FH         LINE#         15
  C:1471H         LINE#         16
  C:1473H         LINE#         17
  C:1475H         LINE#         19
  C:147BH         LINE#         23
  -------         ENDPROC       STATUS_CHECK
  -------         PROC          CURSOR_POSITION
  C:13F8H         LINE#         31
  C:13F8H         LINE#         32
  C:13F8H         LINE#         34
  C:13FAH         LINE#         35
  C:13FCH         LINE#         36
BL51 BANKED LINKER/LOCATER V6.22                                                      05/11/2021  08:03:25  PAGE 6


  C:13FEH         LINE#         37
  C:1403H         LINE#         38
  C:1408H         LINE#         39
  C:140DH         LINE#         40
  C:140FH         LINE#         43
  -------         ENDPROC       CURSOR_POSITION
  C:147CH         SYMBOL        L?0092
  -------         PROC          L?0091
  -------         ENDPROC       L?0091
  C:147CH         SYMBOL        L?0092
  -------         PROC          _WRITE_DATA
  D:0007H         SYMBOL        dat
  C:1483H         LINE#         53
  C:1483H         LINE#         56
  C:1483H         LINE#         57
  C:1483H         LINE#         58
  C:1483H         LINE#         59
  C:1483H         LINE#         60
  C:1486H         LINE#         61
  C:1488H         LINE#         62
  C:148AH         LINE#         64
  -------         ENDPROC       _WRITE_DATA
  -------         PROC          _WRITE_TEXT
  D:0007H         SYMBOL        text
  C:0003H         LINE#         75
  C:0003H         LINE#         78
  C:0003H         LINE#         79
  C:0003H         LINE#         80
  C:0003H         LINE#         81
  C:0003H         LINE#         82
  C:0006H         LINE#         83
  C:0008H         LINE#         84
  C:000AH         LINE#         86
  -------         ENDPROC       _WRITE_TEXT
  -------         PROC          LCD_INIT_TEXT
  C:13B3H         LINE#         93
  C:13B3H         LINE#         96
  C:13B8H         LINE#         97
  C:13BDH         LINE#         98
  C:13C2H         LINE#         99
  C:13C7H         LINE#         100
  C:13CCH         LINE#         101
  C:13D1H         LINE#         102
  C:13D6H         LINE#         103
  -------         ENDPROC       LCD_INIT_TEXT
  -------         PROC          _WRITE_COM
  D:0007H         SYMBOL        com
  C:14A6H         LINE#         117
  C:14A6H         LINE#         119
  C:14A8H         LINE#         120
  C:14A8H         LINE#         121
  C:14A8H         LINE#         122
  C:14A8H         LINE#         123
  C:14ABH         LINE#         124
  C:14ADH         LINE#         125
  C:14AFH         LINE#         127
  -------         ENDPROC       _WRITE_COM
BL51 BANKED LINKER/LOCATER V6.22                                                      05/11/2021  08:03:25  PAGE 7


  -------         PROC          _CLR_LCD
  D:0007H         SYMBOL        x
  D:0001H         SYMBOL        y
  D:0056H         SYMBOL        length
  -------         DO            
  D:0058H         SYMBOL        i
  D:005AH         SYMBOL        place
  -------         ENDDO         
  C:11C5H         LINE#         137
  C:11CBH         LINE#         140
  C:11E6H         LINE#         141
  C:11EBH         LINE#         142
  C:11F2H         LINE#         143
  C:11F7H         LINE#         144
  C:120DH         LINE#         145
  C:121CH         LINE#         146
  -------         ENDPROC       _CLR_LCD
  -------         PROC          LCD_INIT_GRAPH
  C:1387H         LINE#         160
  C:1387H         LINE#         162
  C:1389H         LINE#         163
  C:138BH         LINE#         164
  C:1390H         LINE#         165
  C:1395H         LINE#         166
  C:139AH         LINE#         167
  C:139FH         LINE#         168
  C:13A4H         LINE#         169
  C:13A9H         LINE#         170
  C:13AEH         LINE#         171
  -------         ENDPROC       LCD_INIT_GRAPH
  -------         PROC          _DISPLAY
  D:003EH         SYMBOL        p
  -------         DO            
  D:0041H         SYMBOL        i
  D:0043H         SYMBOL        j
  D:0045H         SYMBOL        addr
  -------         ENDDO         
  C:1047H         LINE#         186
  C:104DH         LINE#         190
  C:1053H         LINE#         191
  C:1058H         LINE#         192
  C:105EH         LINE#         193
  C:1063H         LINE#         194
  C:1068H         LINE#         197
  C:1077H         LINE#         198
  C:1077H         LINE#         200
  C:107FH         LINE#         201
  C:1092H         LINE#         202
  C:1097H         LINE#         203
  C:109DH         LINE#         204
  C:10A2H         LINE#         206
  C:10A2H         LINE#         208
  C:10B5H         LINE#         209
  C:10BAH         LINE#         211
  C:10C9H         LINE#         214
  -------         ENDPROC       _DISPLAY
  -------         PROC          _PRINT_TEXT
BL51 BANKED LINKER/LOCATER V6.22                                                      05/11/2021  08:03:25  PAGE 8


  D:0007H         SYMBOL        x
  D:0002H         SYMBOL        y
  D:005CH         SYMBOL        a
  -------         DO            
  D:005DH         SYMBOL        place
  -------         ENDDO         
  C:1312H         LINE#         224
  C:1316H         LINE#         228
  C:1331H         LINE#         229
  C:1336H         LINE#         230
  C:133DH         LINE#         231
  C:1342H         LINE#         232
  C:1347H         LINE#         233
  C:134CH         LINE#         234
  -------         ENDPROC       _PRINT_TEXT
  -------         PROC          _TEXT_OUT
  D:0061H         SYMBOL        a
  C:143BH         LINE#         247
  C:143DH         LINE#         249
  C:1442H         LINE#         250
  C:1447H         LINE#         251
  -------         ENDPROC       _TEXT_OUT
  -------         PROC          _TEXT_LOCATION
  D:005FH         SYMBOL        place
  C:1428H         LINE#         267
  C:142CH         LINE#         269
  C:142FH         LINE#         270
  C:1436H         LINE#         271
  -------         ENDPROC       _TEXT_LOCATION
  -------         PROC          _PRINT_STRING
  D:004FH         SYMBOL        str
  -------         DO            
  D:0052H         SYMBOL        i
  D:0054H         SYMBOL        ch
  -------         ENDDO         
  C:1351H         LINE#         285
  C:1357H         LINE#         289
  C:136EH         LINE#         290
  C:136EH         LINE#         292
  C:1379H         LINE#         293
  C:137CH         LINE#         295
  C:1386H         LINE#         297
  -------         ENDPROC       _PRINT_STRING
  C:144EH         SYMBOL        L?0094
  -------         PROC          L?0093
  -------         ENDPROC       L?0093
  C:144EH         SYMBOL        L?0094
  -------         PROC          _DELAY_LCD
  D:0007H         SYMBOL        t
  C:1456H         LINE#         308
  C:1456H         LINE#         310
  C:145CH         LINE#         312
  -------         ENDPROC       _DELAY_LCD
  -------         PROC          _ASC2LCD
  D:0006H         SYMBOL        asc
  -------         DO            
  D:0006H         SYMBOL        r
BL51 BANKED LINKER/LOCATER V6.22                                                      05/11/2021  08:03:25  PAGE 9


  -------         ENDDO         
  C:14B0H         LINE#         326
  C:14B0H         LINE#         329
  C:14B8H         LINE#         330
  C:14B8H         LINE#         332
  -------         ENDPROC       _ASC2LCD
  -------         PROC          CURSOR_ON
  C:148BH         LINE#         351
  C:148BH         LINE#         354
  C:1490H         LINE#         355
  C:1495H         LINE#         356
  -------         ENDPROC       CURSOR_ON
  -------         PROC          _WRITE_LCD8
  D:000BH         SYMBOL        x
  D:000CH         SYMBOL        y
  D:000DH         SYMBOL        cha
  -------         DO            
  D:0010H         SYMBOL        place
  D:0012H         SYMBOL        temp_x
  D:0014H         SYMBOL        temp_y
  D:0016H         SYMBOL        i
  D:0018H         SYMBOL        j
  -------         ENDDO         
  C:0DB9H         LINE#         365
  C:0DC3H         LINE#         366
  C:0DC3H         LINE#         368
  C:0DC8H         LINE#         369
  C:0DCEH         LINE#         370
  C:0DD3H         LINE#         371
  C:0DD7H         LINE#         372
  C:0DE7H         LINE#         373
  C:0DECH         LINE#         374
  C:0DECH         LINE#         376
  C:0DF1H         LINE#         377
  C:0DF1H         LINE#         378
  C:0E03H         LINE#         379
  C:0E05H         LINE#         380
  C:0E13H         LINE#         381
  C:0E1AH         LINE#         382
  C:0E1FH         LINE#         383
  C:0E24H         LINE#         384
  C:0E3EH         LINE#         385
  C:0E43H         LINE#         387
  C:0E54H         LINE#         388
  C:0E56H         LINE#         389
  C:0E59H         LINE#         391
  C:0E6AH         LINE#         393
  -------         ENDPROC       _WRITE_LCD8
  -------         PROC          _WRITE_LCD16
  D:0020H         SYMBOL        x
  D:0021H         SYMBOL        y
  D:0022H         SYMBOL        cha
  -------         DO            
  D:0025H         SYMBOL        place
  D:0027H         SYMBOL        temp_x
  D:0029H         SYMBOL        temp_y
  D:002BH         SYMBOL        i
BL51 BANKED LINKER/LOCATER V6.22                                                      05/11/2021  08:03:25  PAGE 10


  D:002DH         SYMBOL        j
  -------         ENDDO         
  C:0CFDH         LINE#         396
  C:0D07H         LINE#         397
  C:0D07H         LINE#         399
  C:0D0CH         LINE#         400
  C:0D12H         LINE#         401
  C:0D17H         LINE#         402
  C:0D1BH         LINE#         403
  C:0D2BH         LINE#         404
  C:0D30H         LINE#         405
  C:0D30H         LINE#         407
  C:0D35H         LINE#         408
  C:0D35H         LINE#         409
  C:0D47H         LINE#         410
  C:0D49H         LINE#         411
  C:0D57H         LINE#         412
  C:0D5EH         LINE#         413
  C:0D63H         LINE#         414
  C:0D68H         LINE#         415
  C:0D89H         LINE#         416
  C:0D8EH         LINE#         418
  C:0D9FH         LINE#         419
  C:0DA1H         LINE#         420
  C:0DA4H         LINE#         422
  C:0DB8H         LINE#         423
  -------         ENDPROC       _WRITE_LCD16
  -------         PROC          _WRITE_LCD24
  D:000BH         SYMBOL        x
  D:000CH         SYMBOL        y
  D:000DH         SYMBOL        cha
  -------         DO            
  D:0010H         SYMBOL        place
  D:0012H         SYMBOL        temp_x
  D:0014H         SYMBOL        temp_y
  D:0016H         SYMBOL        i
  D:0018H         SYMBOL        j
  -------         ENDDO         
  C:0B7FH         LINE#         427
  C:0B89H         LINE#         428
  C:0B89H         LINE#         430
  C:0B8EH         LINE#         431
  C:0B94H         LINE#         432
  C:0B99H         LINE#         433
  C:0B9DH         LINE#         434
  C:0BADH         LINE#         435
  C:0BB2H         LINE#         436
  C:0BB2H         LINE#         438
  C:0BB7H         LINE#         439
  C:0BB7H         LINE#         440
  C:0BC9H         LINE#         441
  C:0BCBH         LINE#         442
  C:0BD9H         LINE#         443
  C:0BE0H         LINE#         444
  C:0BE5H         LINE#         445
  C:0BEAH         LINE#         446
  C:0C0EH         LINE#         447
BL51 BANKED LINKER/LOCATER V6.22                                                      05/11/2021  08:03:25  PAGE 11


  C:0C13H         LINE#         449
  C:0C24H         LINE#         450
  C:0C26H         LINE#         451
  C:0C29H         LINE#         453
  C:0C3DH         LINE#         454
  -------         ENDPROC       _WRITE_LCD24
  -------         PROC          _WRITE_LCD24_24
  D:002FH         SYMBOL        x
  D:0030H         SYMBOL        y
  D:0031H         SYMBOL        cha
  -------         DO            
  D:0034H         SYMBOL        place
  D:0036H         SYMBOL        temp_x
  D:0038H         SYMBOL        temp_y
  D:003AH         SYMBOL        i
  D:003CH         SYMBOL        j
  -------         ENDDO         
  C:0C3EH         LINE#         462
  C:0C48H         LINE#         463
  C:0C48H         LINE#         465
  C:0C4DH         LINE#         466
  C:0C53H         LINE#         467
  C:0C58H         LINE#         468
  C:0C5CH         LINE#         469
  C:0C6CH         LINE#         470
  C:0C71H         LINE#         471
  C:0C71H         LINE#         473
  C:0C76H         LINE#         474
  C:0C76H         LINE#         475
  C:0C88H         LINE#         476
  C:0C8AH         LINE#         477
  C:0C98H         LINE#         478
  C:0C9FH         LINE#         479
  C:0CA4H         LINE#         480
  C:0CA9H         LINE#         481
  C:0CCDH         LINE#         482
  C:0CD2H         LINE#         484
  C:0CE3H         LINE#         485
  C:0CE5H         LINE#         486
  C:0CE8H         LINE#         488
  C:0CFCH         LINE#         489
  -------         ENDPROC       _WRITE_LCD24_24
  -------         PROC          CLEAR_ALL
  -------         DO            
  D:0008H         SYMBOL        i
  D:000AH         SYMBOL        j
  D:000CH         SYMBOL        place
  -------         ENDDO         
  C:10CAH         LINE#         499
  C:10CAH         LINE#         500
  C:10CAH         LINE#         502
  C:10CFH         LINE#         503
  C:10D3H         LINE#         504
  C:10E7H         LINE#         505
  C:10ECH         LINE#         508
  C:10F1H         LINE#         510
  C:1106H         LINE#         511
BL51 BANKED LINKER/LOCATER V6.22                                                      05/11/2021  08:03:25  PAGE 12


  C:110BH         LINE#         512
  C:1111H         LINE#         513
  C:1116H         LINE#         514
  C:111BH         LINE#         515
  C:1120H         LINE#         516
  C:1125H         LINE#         519
  C:1136H         LINE#         521
  C:1147H         LINE#         523
  -------         ENDPROC       CLEAR_ALL
  -------         PROC          _CLEAR_PART
  D:0020H         SYMBOL        x
  D:0021H         SYMBOL        y
  D:0022H         SYMBOL        length
  -------         DO            
  D:0023H         SYMBOL        i
  D:0025H         SYMBOL        j
  D:0027H         SYMBOL        place
  -------         ENDDO         
  C:0FB5H         LINE#         533
  C:0FBBH         LINE#         534
  C:0FBBH         LINE#         536
  C:0FC0H         LINE#         537
  C:0FC4H         LINE#         538
  C:0FD4H         LINE#         539
  C:0FD9H         LINE#         542
  C:0FE9H         LINE#         545
  C:100CH         LINE#         546
  C:1011H         LINE#         547
  C:1017H         LINE#         548
  C:101CH         LINE#         549
  C:1021H         LINE#         550
  C:1026H         LINE#         551
  C:102BH         LINE#         554
  C:1035H         LINE#         560
  C:1046H         LINE#         562
  -------         ENDPROC       _CLEAR_PART
  -------         ENDMOD        LM4229

  -------         MODULE        INTERFACE
  C:0000H         SYMBOL        _ICE_DUMMY_
  D:0090H         PUBLIC        P1
  D:00A0H         PUBLIC        P2
  C:0657H         PUBLIC        douhao
  C:0537H         PUBLIC        space
  C:05E7H         PUBLIC        c1
  C:0889H         PUBLIC        _cursor_flash
  C:05D7H         PUBLIC        c2
  C:05F7H         PUBLIC        juhao
  C:04ABH         PUBLIC        fang
  C:04E7H         PUBLIC        p1
  C:0667H         PUBLIC        cursor
  C:0617H         PUBLIC        p2
  C:0026H         PUBLIC        Start_interface
  C:1148H         PUBLIC        c_pass1
  C:0E6BH         PUBLIC        c_pass2
  C:0F10H         PUBLIC        c_pass3
  C:0677H         PUBLIC        hei
BL51 BANKED LINKER/LOCATER V6.22                                                      05/11/2021  08:03:25  PAGE 13


  C:127CH         PUBLIC        init_enemy
  C:14C2H         PUBLIC        enemy_move
  C:0ABCH         PUBLIC        _cursor_move
  C:0433H         PUBLIC        da
  C:06B7H         PUBLIC        c_pass_choice
  C:0697H         PUBLIC        enemy1
  B:0090H.0       PUBLIC        LED
  C:046FH         PUBLIC        ta
  C:0517H         PUBLIC        a
  C:0627H         PUBLIC        d
  C:14B9H         PUBLIC        _print_enemy1
  C:0507H         PUBLIC        e
  C:0647H         PUBLIC        f
  C:0577H         PUBLIC        g
  C:0587H         PUBLIC        h
  C:0557H         PUBLIC        i
  C:04F7H         PUBLIC        l
  C:05C7H         PUBLIC        m
  C:0567H         PUBLIC        n
  C:0597H         PUBLIC        o
  C:05B7H         PUBLIC        r
  C:0527H         PUBLIC        s
  C:05A7H         PUBLIC        t
  C:0547H         PUBLIC        u
  C:0607H         PUBLIC        v
  C:0637H         PUBLIC        w
  -------         PROC          START_INTERFACE
  -------         DO            
  D:0008H         SYMBOL        place
  D:000AH         SYMBOL        ch
  -------         ENDDO         
  C:0026H         LINE#         12
  C:0026H         LINE#         13
  C:002BH         LINE#         14
  C:002DH         LINE#         15
  C:0030H         LINE#         16
  C:003DH         LINE#         17
  C:004AH         LINE#         18
  C:0057H         LINE#         19
  C:0064H         LINE#         20
  C:0071H         LINE#         21
  C:007EH         LINE#         22
  C:008BH         LINE#         23
  C:0098H         LINE#         24
  C:00A5H         LINE#         25
  C:00B2H         LINE#         26
  C:00BFH         LINE#         27
  C:00CCH         LINE#         28
  C:00D9H         LINE#         29
  C:00E6H         LINE#         30
  C:00F3H         LINE#         31
  C:0100H         LINE#         32
  C:010DH         LINE#         33
  C:011AH         LINE#         34
  C:0127H         LINE#         35
  C:0134H         LINE#         36
  C:0141H         LINE#         37
BL51 BANKED LINKER/LOCATER V6.22                                                      05/11/2021  08:03:25  PAGE 14


  C:014EH         LINE#         38
  C:015BH         LINE#         39
  C:0168H         LINE#         40
  C:0175H         LINE#         41
  C:0182H         LINE#         42
  C:018FH         LINE#         43
  C:019CH         LINE#         44
  C:01A9H         LINE#         45
  C:01B6H         LINE#         46
  C:01C3H         LINE#         47
  C:01D0H         LINE#         48
  C:01DDH         LINE#         49
  C:01EAH         LINE#         50
  C:01F7H         LINE#         51
  C:0204H         LINE#         52
  C:0211H         LINE#         53
  C:021EH         LINE#         54
  C:022BH         LINE#         55
  C:0238H         LINE#         56
  C:0245H         LINE#         57
  C:0252H         LINE#         58
  C:025FH         LINE#         59
  C:026CH         LINE#         60
  C:0279H         LINE#         61
  C:0286H         LINE#         62
  C:0293H         LINE#         63
  C:02A0H         LINE#         64
  C:02ADH         LINE#         65
  C:02BAH         LINE#         66
  C:02C7H         LINE#         67
  C:02D4H         LINE#         68
  C:02E1H         LINE#         69
  C:02EEH         LINE#         70
  C:02FBH         LINE#         71
  C:0308H         LINE#         72
  C:0315H         LINE#         73
  C:0322H         LINE#         74
  C:032FH         LINE#         75
  C:033CH         LINE#         76
  C:0349H         LINE#         77
  C:0356H         LINE#         78
  C:0363H         LINE#         79
  C:0370H         LINE#         80
  C:037DH         LINE#         81
  C:038AH         LINE#         82
  C:0397H         LINE#         83
  C:03A4H         LINE#         84
  C:03B1H         LINE#         85
  C:03BEH         LINE#         86
  C:03CBH         LINE#         87
  C:03D8H         LINE#         88
  C:03E5H         LINE#         89
  C:03F2H         LINE#         90
  C:03FFH         LINE#         91
  C:040CH         LINE#         92
  C:0419H         LINE#         93
  C:0426H         LINE#         94
BL51 BANKED LINKER/LOCATER V6.22                                                      05/11/2021  08:03:25  PAGE 15


  -------         ENDPROC       START_INTERFACE
  -------         PROC          _CURSOR_FLASH
  D:0010H         SYMBOL        x
  D:0011H         SYMBOL        y
  -------         DO            
  D:0012H         SYMBOL        place
  D:0014H         SYMBOL        temp_x
  D:0016H         SYMBOL        temp_y
  D:0018H         SYMBOL        i
  D:001AH         SYMBOL        j
  -------         ENDDO         
  C:0889H         LINE#         112
  C:088DH         LINE#         113
  C:088DH         LINE#         116
  C:0892H         LINE#         117
  C:0898H         LINE#         118
  C:089DH         LINE#         119
  C:08A1H         LINE#         120
  C:08B1H         LINE#         121
  C:08B6H         LINE#         122
  C:08B6H         LINE#         123
  C:08B6H         LINE#         125
  C:08BBH         LINE#         126
  C:08BBH         LINE#         128
  C:08C0H         LINE#         129
  C:08C0H         LINE#         130
  C:08D2H         LINE#         131
  C:08D4H         LINE#         132
  C:08E2H         LINE#         133
  C:08F0H         LINE#         134
  C:08F5H         LINE#         135
  C:08FAH         LINE#         136
  C:0906H         LINE#         137
  C:090BH         LINE#         139
  C:091CH         LINE#         140
  C:091EH         LINE#         141
  C:0921H         LINE#         143
  C:0932H         LINE#         145
  C:0935H         LINE#         146
  C:0936H         LINE#         147
  C:0937H         LINE#         148
  C:0938H         LINE#         149
  C:093DH         LINE#         150
  C:093DH         LINE#         152
  C:0942H         LINE#         153
  C:0942H         LINE#         154
  C:0954H         LINE#         155
  C:0956H         LINE#         156
  C:0964H         LINE#         157
  C:0972H         LINE#         158
  C:0977H         LINE#         159
  C:097CH         LINE#         160
  C:0981H         LINE#         161
  C:0986H         LINE#         163
  C:0997H         LINE#         164
  C:0999H         LINE#         165
  C:099CH         LINE#         167
BL51 BANKED LINKER/LOCATER V6.22                                                      05/11/2021  08:03:25  PAGE 16


  C:09ADH         LINE#         168
  C:09B0H         LINE#         169
  C:09B1H         LINE#         170
  C:09B2H         LINE#         171
  C:09B3H         LINE#         172
  C:09BCH         LINE#         173
  C:09BCH         LINE#         174
  C:09C7H         LINE#         175
  C:09CDH         LINE#         176
  C:09D3H         LINE#         177
  C:09D6H         LINE#         178
  C:09D9H         LINE#         179
  C:09DEH         LINE#         180
  C:09DEH         LINE#         181
  -------         ENDPROC       _CURSOR_FLASH
  -------         PROC          _CURSOR_MOVE
  D:001CH         SYMBOL        temp_x
  D:001EH         SYMBOL        temp_y
  C:0ABCH         LINE#         194
  C:0AC4H         LINE#         195
  C:0AC4H         LINE#         197
  C:0ACDH         LINE#         198
  C:0ACFH         LINE#         199
  C:0AD7H         LINE#         200
  C:0AD7H         LINE#         201
  C:0AE0H         LINE#         202
  C:0AEDH         LINE#         203
  C:0AF5H         LINE#         204
  C:0AF5H         LINE#         206
  C:0AF7H         LINE#         207
  C:0AFFH         LINE#         208
  C:0AFFH         LINE#         209
  C:0B08H         LINE#         210
  C:0B15H         LINE#         211
  C:0B1DH         LINE#         212
  C:0B1DH         LINE#         214
  C:0B1FH         LINE#         215
  C:0B27H         LINE#         216
  C:0B30H         LINE#         217
  C:0B3DH         LINE#         218
  C:0B48H         LINE#         220
  C:0B48H         LINE#         221
  C:0B4AH         LINE#         222
  C:0B55H         LINE#         223
  C:0B5EH         LINE#         224
  C:0B6BH         LINE#         225
  C:0B76H         LINE#         226
  C:0B7BH         LINE#         229
  C:0B7BH         LINE#         232
  C:0B7EH         LINE#         234
  -------         ENDPROC       _CURSOR_MOVE
  -------         PROC          C_PASS1
  -------         DO            
  D:0008H         SYMBOL        x
  D:000AH         SYMBOL        y
  D:000CH         SYMBOL        i
  D:000EH         SYMBOL        j
BL51 BANKED LINKER/LOCATER V6.22                                                      05/11/2021  08:03:25  PAGE 17


  -------         ENDDO         
  C:1148H         LINE#         241
  C:1148H         LINE#         242
  C:1148H         LINE#         244
  C:114EH         LINE#         245
  C:1154H         LINE#         246
  C:115AH         LINE#         247
  C:115FH         LINE#         248
  C:116AH         LINE#         250
  C:1177H         LINE#         252
  C:1184H         LINE#         254
  C:1189H         LINE#         255
  C:118EH         LINE#         257
  C:11A1H         LINE#         259
  C:11AEH         LINE#         261
  C:11BBH         LINE#         262
  C:11BEH         LINE#         264
  -------         ENDPROC       C_PASS1
  -------         PROC          C_PASS2
  -------         DO            
  D:0008H         SYMBOL        x
  D:000AH         SYMBOL        y
  D:000CH         SYMBOL        i
  D:000EH         SYMBOL        j
  -------         ENDDO         
  C:0E6BH         LINE#         274
  C:0E6BH         LINE#         275
  C:0E6BH         LINE#         277
  C:0E71H         LINE#         278
  C:0E77H         LINE#         279
  C:0E7DH         LINE#         280
  C:0E82H         LINE#         281
  C:0E8DH         LINE#         283
  C:0E9AH         LINE#         285
  C:0EA7H         LINE#         287
  C:0EACH         LINE#         288
  C:0EB1H         LINE#         290
  C:0EC4H         LINE#         292
  C:0ED1H         LINE#         294
  C:0EDEH         LINE#         296
  C:0EE4H         LINE#         297
  C:0EEAH         LINE#         299
  C:0EF5H         LINE#         301
  C:0F02H         LINE#         303
  C:0F0FH         LINE#         307
  -------         ENDPROC       C_PASS2
  -------         PROC          C_PASS3
  -------         DO            
  D:0008H         SYMBOL        x
  D:000AH         SYMBOL        y
  D:000CH         SYMBOL        i
  D:000EH         SYMBOL        j
  -------         ENDDO         
  C:0F10H         LINE#         317
  C:0F10H         LINE#         318
  C:0F10H         LINE#         320
  C:0F16H         LINE#         321
BL51 BANKED LINKER/LOCATER V6.22                                                      05/11/2021  08:03:25  PAGE 18


  C:0F1CH         LINE#         322
  C:0F22H         LINE#         323
  C:0F27H         LINE#         324
  C:0F32H         LINE#         326
  C:0F3FH         LINE#         328
  C:0F4CH         LINE#         330
  C:0F51H         LINE#         331
  C:0F56H         LINE#         333
  C:0F69H         LINE#         335
  C:0F76H         LINE#         337
  C:0F83H         LINE#         339
  C:0F89H         LINE#         340
  C:0F8FH         LINE#         342
  C:0F9AH         LINE#         344
  C:0FA7H         LINE#         346
  C:0FB4H         LINE#         351
  -------         ENDPROC       C_PASS3
  -------         PROC          C_PASS_CHOICE
  C:06B7H         LINE#         367
  C:06B7H         LINE#         369
  C:06D8H         LINE#         370
  C:06E5H         LINE#         371
  C:06F2H         LINE#         373
  C:06FFH         LINE#         374
  C:070CH         LINE#         375
  C:0719H         LINE#         376
  C:0726H         LINE#         377
  C:0733H         LINE#         378
  C:0740H         LINE#         379
  C:074DH         LINE#         381
  C:075AH         LINE#         382
  C:0767H         LINE#         383
  C:0774H         LINE#         384
  C:0781H         LINE#         385
  C:078EH         LINE#         386
  C:079BH         LINE#         387
  C:07A8H         LINE#         388
  C:07B5H         LINE#         389
  C:07C2H         LINE#         390
  C:07CFH         LINE#         391
  C:07DCH         LINE#         393
  C:07E9H         LINE#         394
  C:07F6H         LINE#         395
  C:0803H         LINE#         396
  C:0810H         LINE#         397
  C:081DH         LINE#         398
  C:082AH         LINE#         399
  C:0837H         LINE#         400
  C:0844H         LINE#         401
  C:0851H         LINE#         402
  C:085EH         LINE#         403
  C:086BH         LINE#         404
  C:0878H         LINE#         405
  C:0885H         LINE#         408
  C:0888H         LINE#         410
  -------         ENDPROC       C_PASS_CHOICE
  -------         PROC          _PRINT_ENEMY1
BL51 BANKED LINKER/LOCATER V6.22                                                      05/11/2021  08:03:25  PAGE 19


  D:0007H         SYMBOL        x
  D:0005H         SYMBOL        y
  C:14B9H         LINE#         422
  C:14B9H         LINE#         423
  C:14B9H         LINE#         425
  -------         ENDPROC       _PRINT_ENEMY1
  -------         PROC          INIT_ENEMY
  C:127CH         LINE#         430
  C:127CH         LINE#         431
  C:127CH         LINE#         433
  C:1283H         LINE#         434
  C:1290H         LINE#         435
  C:129DH         LINE#         436
  C:12AAH         LINE#         437
  C:12B8H         LINE#         438
  C:12C6H         LINE#         439
  C:12C9H         LINE#         442
  -------         ENDPROC       INIT_ENEMY
  -------         PROC          ENEMY_MOVE
  C:14C2H         LINE#         444
  C:14C2H         LINE#         449
  -------         ENDPROC       ENEMY_MOVE
  -------         ENDMOD        INTERFACE

  -------         MODULE        INTERRUPT
  C:0000H         SYMBOL        _ICE_DUMMY_
  D:0090H         PUBLIC        P1
  D:00A0H         PUBLIC        P2
  B:00A8H.7       PUBLIC        EA
  B:00A8H.4       PUBLIC        ES
  B:0098H.0       PUBLIC        RI
  D:0099H         PUBLIC        SBUF
  D:0098H         PUBLIC        SCON
  C:1410H         PUBLIC        scon
  D:0089H         PUBLIC        TMOD
  C:000EH         PUBLIC        init
  B:00A8H.1       PUBLIC        ET0
  D:008CH         PUBLIC        TH0
  D:008DH         PUBLIC        TH1
  D:008AH         PUBLIC        TL0
  D:008BH         PUBLIC        TL1
  C:13DBH         PUBLIC        timer0
  B:0088H.4       PUBLIC        TR0
  B:0088H.6       PUBLIC        TR1
  B:0098H.4       PUBLIC        REN
  C:145DH         PUBLIC        timer0_init
  -------         PROC          INIT
  C:000EH         LINE#         6
  C:000EH         LINE#         7
  C:000EH         LINE#         9
  C:0011H         LINE#         10
  C:0014H         LINE#         11
  C:0017H         LINE#         12
  C:001AH         LINE#         13
  C:001CH         LINE#         14
  C:001EH         LINE#         15
  C:0020H         LINE#         16
BL51 BANKED LINKER/LOCATER V6.22                                                      05/11/2021  08:03:25  PAGE 20


  C:0022H         LINE#         18
  -------         ENDPROC       INIT
  -------         PROC          SCON
  C:1410H         LINE#         22
  C:1417H         LINE#         24
  C:141AH         LINE#         25
  C:141AH         LINE#         28
  C:1421H         LINE#         29
  C:1423H         LINE#         30
  C:1423H         LINE#         32
  -------         ENDPROC       SCON
  -------         PROC          TIMER0_INIT
  C:145DH         LINE#         33
  C:145DH         LINE#         35
  C:1460H         LINE#         36
  C:1463H         LINE#         37
  C:1466H         LINE#         38
  C:1468H         LINE#         39
  C:146AH         LINE#         40
  C:146CH         LINE#         43
  -------         ENDPROC       TIMER0_INIT
  -------         PROC          TIMER0
  C:13DBH         LINE#         46
  C:13DDH         LINE#         49
  C:13E0H         LINE#         50
  C:13E3H         LINE#         51
  C:13EBH         LINE#         53
  C:13F1H         LINE#         55
  C:13F5H         LINE#         58
  C:13F5H         LINE#         61
  -------         ENDPROC       TIMER0
  -------         ENDMOD        INTERRUPT

  -------         MODULE        ENEMY
  C:0000H         SYMBOL        _ICE_DUMMY_
  D:00A0H         PUBLIC        P2
  -------         ENDMOD        ENEMY

  -------         MODULE        ?C?CLDOPTR
  C:09E1H         PUBLIC        ?C?CLDOPTR
  -------         ENDMOD        ?C?CLDOPTR

  -------         MODULE        ?C?IMUL
  C:0A0EH         PUBLIC        ?C?IMUL
  -------         ENDMOD        ?C?IMUL

  -------         MODULE        ?C?UIDIV
  C:0A20H         PUBLIC        ?C?UIDIV
  -------         ENDMOD        ?C?UIDIV

  -------         MODULE        ?C?SIDIV
  C:0A75H         PUBLIC        ?C?SIDIV
  -------         ENDMOD        ?C?SIDIV

  -------         MODULE        ?C?OFFX256
  C:0AABH         PUBLIC        ?C?OFFX256
  -------         ENDMOD        ?C?OFFX256
BL51 BANKED LINKER/LOCATER V6.22                                                      05/11/2021  08:03:25  PAGE 21



*** WARNING L16: UNCALLED SEGMENT, IGNORED FOR OVERLAY PROCESS
    SEGMENT: ?CO?TEST_MAIN

*** WARNING L16: UNCALLED SEGMENT, IGNORED FOR OVERLAY PROCESS
    SEGMENT: ?PR?STATUS_CHECK?LM4229

*** WARNING L16: UNCALLED SEGMENT, IGNORED FOR OVERLAY PROCESS
    SEGMENT: ?PR?CURSOR_POSITION?LM4229

*** WARNING L16: UNCALLED SEGMENT, IGNORED FOR OVERLAY PROCESS
    SEGMENT: ?PR?LCD_INIT_TEXT?LM4229

*** WARNING L16: UNCALLED SEGMENT, IGNORED FOR OVERLAY PROCESS
    SEGMENT: ?PR?_CLR_LCD?LM4229

*** WARNING L16: UNCALLED SEGMENT, IGNORED FOR OVERLAY PROCESS
    SEGMENT: ?PR?_DISPLAY?LM4229

*** WARNING L16: UNCALLED SEGMENT, IGNORED FOR OVERLAY PROCESS
    SEGMENT: ?PR?_PRINT_TEXT?LM4229

*** WARNING L16: UNCALLED SEGMENT, IGNORED FOR OVERLAY PROCESS
    SEGMENT: ?PR?_TEXT_LOCATION?LM4229

*** WARNING L16: UNCALLED SEGMENT, IGNORED FOR OVERLAY PROCESS
    SEGMENT: ?PR?_PRINT_STRING?LM4229

*** WARNING L16: UNCALLED SEGMENT, IGNORED FOR OVERLAY PROCESS
    SEGMENT: ?PR?CURSOR_ON?LM4229

*** WARNING L16: UNCALLED SEGMENT, IGNORED FOR OVERLAY PROCESS
    SEGMENT: ?PR?_WRITE_LCD24_24?LM4229

*** WARNING L16: UNCALLED SEGMENT, IGNORED FOR OVERLAY PROCESS
    SEGMENT: ?PR?ENEMY_MOVE?INTERFACE

*** WARNING L16: UNCALLED SEGMENT, IGNORED FOR OVERLAY PROCESS
    SEGMENT: ?PR?TIMER0_INIT?INTERRUPT

*** WARNING L1: UNRESOLVED EXTERNAL SYMBOL
    SYMBOL:  DI_QUANTITY
    MODULE:  interface.obj (INTERFACE)

*** WARNING L1: UNRESOLVED EXTERNAL SYMBOL
    SYMBOL:  ENEMY
    MODULE:  interface.obj (INTERFACE)

*** WARNING L1: UNRESOLVED EXTERNAL SYMBOL
    SYMBOL:  DI
    MODULE:  interface.obj (INTERFACE)

*** WARNING L2: REFERENCE MADE TO UNRESOLVED EXTERNAL
    SYMBOL:  DI_QUANTITY
    MODULE:  interface.obj (INTERFACE)
    ADDRESS: 1284H

BL51 BANKED LINKER/LOCATER V6.22                                                      05/11/2021  08:03:25  PAGE 22


*** WARNING L2: REFERENCE MADE TO UNRESOLVED EXTERNAL
    SYMBOL:  DI
    MODULE:  interface.obj (INTERFACE)
    ADDRESS: 128AH

*** WARNING L2: REFERENCE MADE TO UNRESOLVED EXTERNAL
    SYMBOL:  DI_QUANTITY
    MODULE:  interface.obj (INTERFACE)
    ADDRESS: 1291H

*** WARNING L2: REFERENCE MADE TO UNRESOLVED EXTERNAL
    SYMBOL:  DI
    MODULE:  interface.obj (INTERFACE)
    ADDRESS: 1297H

*** WARNING L2: REFERENCE MADE TO UNRESOLVED EXTERNAL
    SYMBOL:  DI_QUANTITY
    MODULE:  interface.obj (INTERFACE)
    ADDRESS: 129EH

*** WARNING L2: REFERENCE MADE TO UNRESOLVED EXTERNAL
    SYMBOL:  DI
    MODULE:  interface.obj (INTERFACE)
    ADDRESS: 12A4H

*** WARNING L2: REFERENCE MADE TO UNRESOLVED EXTERNAL
    SYMBOL:  DI_QUANTITY
    MODULE:  interface.obj (INTERFACE)
    ADDRESS: 12ABH

*** WARNING L2: REFERENCE MADE TO UNRESOLVED EXTERNAL
    SYMBOL:  DI
    MODULE:  interface.obj (INTERFACE)
    ADDRESS: 12B1H

*** WARNING L2: REFERENCE MADE TO UNRESOLVED EXTERNAL
    SYMBOL:  DI_QUANTITY
    MODULE:  interface.obj (INTERFACE)
    ADDRESS: 12B9H

*** WARNING L2: REFERENCE MADE TO UNRESOLVED EXTERNAL
    SYMBOL:  DI
    MODULE:  interface.obj (INTERFACE)
    ADDRESS: 12BFH

*** WARNING L2: REFERENCE MADE TO UNRESOLVED EXTERNAL
    SYMBOL:  ENEMY
    MODULE:  interface.obj (INTERFACE)
    ADDRESS: 12C7H

*** WARNING L1: UNRESOLVED EXTERNAL SYMBOL
    SYMBOL:  NUM
    MODULE:  interrupt.obj (INTERRUPT)

*** WARNING L2: REFERENCE MADE TO UNRESOLVED EXTERNAL
    SYMBOL:  NUM
    MODULE:  interrupt.obj (INTERRUPT)
BL51 BANKED LINKER/LOCATER V6.22                                                      05/11/2021  08:03:25  PAGE 23


    ADDRESS: 13E4H

*** WARNING L2: REFERENCE MADE TO UNRESOLVED EXTERNAL
    SYMBOL:  NUM
    MODULE:  interrupt.obj (INTERRUPT)
    ADDRESS: 13E6H

*** WARNING L2: REFERENCE MADE TO UNRESOLVED EXTERNAL
    SYMBOL:  NUM
    MODULE:  interrupt.obj (INTERRUPT)
    ADDRESS: 13EAH

*** WARNING L2: REFERENCE MADE TO UNRESOLVED EXTERNAL
    SYMBOL:  NUM
    MODULE:  interrupt.obj (INTERRUPT)
    ADDRESS: 13EEH

*** WARNING L2: REFERENCE MADE TO UNRESOLVED EXTERNAL
    SYMBOL:  NUM
    MODULE:  interrupt.obj (INTERRUPT)
    ADDRESS: 13F2H

*** WARNING L2: REFERENCE MADE TO UNRESOLVED EXTERNAL
    SYMBOL:  NUM
    MODULE:  interrupt.obj (INTERRUPT)
    ADDRESS: 13F4H

Program Size: data=99.0 xdata=0 code=5315
LINK/LOCATE RUN COMPLETE.  34 WARNING(S),  0 ERROR(S)
